(dp1
S'output'
p2
S'missing "pass" in view'
p3
sS'layer'
p4
S'ParserContainer'
p5
sS'code'
p6
S'response.write(\'\\n\\n  <!-- SCRIPTS GO HERE -->\\n  <script src="\', escape=False)\nresponse.write(URL(\'static\', \'js/vue.js\'))\nresponse.write(\'"></script>\\n\\n  <!-- FONTS GO HERE -->\\n  <link href="https://fonts.googleapis.com/css?family=Open+Sans|Oswald" rel="stylesheet">\\n  <link rel="stylesheet" href="\', escape=False)\nresponse.write(URL(\'static\', \'font-awesome-4.6.3/css/font-awesome.min.css\'))\nresponse.write(\'">\\n\\n  <!-- STYLESHEETS GO HERE -->\\n  <link href="\', escape=False)\nresponse.write(URL(\'static\',\'css/main.css\'))\nresponse.write(\'" rel="stylesheet" type="text/css"/>\\n  <link href="\', escape=False)\nresponse.write(URL(\'static\',\'css/ratings.css\'))\nresponse.write(\'" rel="stylesheet" type="text/css"/>\\n\\n  \', escape=False)\nresponse.write(\'<script type="text/javascript"><!--\\n    // These variables are used by the web2py_ajax_init function in web2py_ajax.js (which is loaded below).\\n    \', escape=False)\nresponse.write(ASSIGNJS(\nw2p_ajax_confirm_message = T(\'Are you sure you want to delete this object?\'),\nw2p_ajax_disable_with_message = T(\'Working...\'),\nw2p_ajax_date_format = T(\'%Y-%m-%d\'),\nw2p_ajax_datetime_format = T(\'%Y-%m-%d %H:%M:%S\'),\najax_error_500 = T.M(\'An error occured, please [[reload %s]] the page\') % URL(args=request.args, vars=request.get_vars)\n))\nresponse.write(\'\\n    //--></script>\\n\', escape=False)\nresponse.files.insert(0,URL(\'static\',\'js/jquery.js\'))\nresponse.files.insert(1,URL(\'static\',\'css/calendar.css\'))\nresponse.files.insert(2,URL(\'static\',\'js/calendar.js\'))\nresponse.files.insert(3,URL(\'static\',\'js/web2py.js\'))\nresponse.include_meta()\nresponse.include_files()\nresponse.write(\'\\n\', escape=False)\nresponse.write(\'\\n\', escape=False)\nresponse.write(\'\\n\\n<div class="main-content">\\n\\n  <div class="main-app">\\n    <div class="nav-bar">\\n      <div class="logo">\\n        <a href="\', escape=False)\nresponse.write(URL(\'default\', \'index\'))\nresponse.write(\'"><h1>RateMyLandlord</h1></a>\\n      </div>\\n      <div class="nav-links">\\n        <ul>\\n          \', escape=False)\nif auth.user != None:\n    response.write(\'\\n            <li><a href="#" v-on:click="nav_to_find_landlord_review()">Write a Review</a></li>\\n          \', escape=False)\nelse:\n    response.write(\'\\n            <li><a href="\', escape=False)\n    response.write(URL(\'default\', \'user\'))\n    response.write(\'">Write a Review</a></li>\\n          \', escape=False)\n    pass:\n        response.write(\'\\n          <li><a href="#" v-on:click="change_page(2)">Find a Landlord</a></li>\\n          <!-- <button v-on:click="change_page(2)">Find a Landlord</button> -->\\n          <li><a href="" v-on:click="change_page(3)">Find a Property</a></li>\\n        </ul>\\n      </div>\\n    </div>\\n    <!-- <div class="search">\\n      <form class="search-form">\\n        <input id="search-box" type="search" placeholder="Search for a Landlord or Property"/>\\n        <button id="search-button">\\n          <i class="fa fa-search"></i>\\n        </button>\\n      </form>\\n    </div> -->\\n\\n    <!-- VUE CODE SHOULD BE LOADED HERE -->\\n    <!-- how do we toggle these pages -->\\n    <div id="vue-div">\\n      <!-- this is just to load a temporary landlord page, uncomment/ -->\\n      <!-- comment this appropriately to toggle view without navigation. -->\\n      <!-- also the script source at the bottom would be need to be -->\\n      <!-- commented/uncommented as well.  This just helps us develop -->\\n      <!-- without the current architecture standards. -->\\n      <!-- <landlord-page></landlord-page> -->\\n\\n      <!-- <p> uncomment line above this to see landlord skeleton </p> -->\\n\\n      <div v-if="page == HOME_PAGE"> HOME_PAGE </div>\\n      <div v-if="page == FIND_LANDLORD_TO_REVIEW"> FIND_LANDLORD_TO_REVIEW </div>\\n      <div v-if="page == FIND_LANDLORD_PAGE"> FIND_LANDLORD </div>\\n      <div v-if="page == FIND_PROPERTY"> FIND_PROPERTY </div>\\n      <div v-if="page == LANDLORD_PAGE"> LANDLORD_PAGE </div>\\n\\n    </div>\\n\\n  </div>\\n\\n  <div class="footer">\\n    <div class="footer-content">\\n      <ul>\\n        <li><a href="">About</a></li>\\n        <li><a href="">Contact</a></li>\\n        <li>RateMyLandlord Team &copy; 2018</li>\\n      </ul>\\n    </div>\\n  </div>\\n\\n</div>\\n\\n<script src="\', escape=False)\n        response.write(URL(\'static\', \'js/default_index.js\'))\n        response.write(\'"></script>\\n<!-- this url for landlord-page is based on the old implntn -->\\n<!-- <script src="\', escape=False)\n        response.write(URL(\'static\', \'js/landlord-page.js\'))\n        response.write(\'"></script> -->\\n\', escape=False)'
p7
sS'snapshot'
p8
(dp9
sS'traceback'
p10
S'None\n'
p11
s.