(dp1
S'output'
p2
S'Unable to open included view file: /Users/eltoncrego/Documents/projects/github/cmps183/cmps-183-final-project/183_RateMyLandlord/applications/rml/views/layout.html'
p3
sS'layer'
p4
S'ParserContainer'
p5
sS'code'
p6
S'{{extend \'layout.html\'}}\n\n{{block header}}\n{{end}}\n\n{{if \'message\' in globals():}}\n<h2>{{=message}}</h2>\n<p class="lead">{{=T(\'How did you get here?\')}}</p>\n<ol>\n  <li>{{=T(\'You are successfully running web2py\')}}</li>\n  <li>{{=XML(T(\'You visited the url %s\', A(request.env.path_info,_href=request.env.path_info)))}}</li>\n  <li>{{=XML(T(\'Which called the function %s located in the file %s\',\n    (A(request.function+\'()\',_href=\'#\'),\n    A(\'web2py/applications/%(application)s/controllers/%(controller)s.py\' % request,\n    _href=URL(\'admin\',\'default\',\'peek\', args=(request.application,\'controllers\',request.controller+\'.py\'))))))}}</li>\n  <li>{{=XML(T(\'The output of the file is a dictionary that was rendered by the view %s\',\n    A(\'web2py/applications/%(application)s/views/%(controller)s/index.html\' % request,\n    _href=URL(\'admin\',\'default\',\'peek\',args=(request.application,\'views\',request.controller,\'index.html\')))))}}</li>\n  <li>{{=T(\'You can modify this application and adapt it to your needs\')}}</li>\n</ol>\n<center style="padding:50px">\n  <a class="btn btn-primary" href="{{=URL(\'admin\',\'default\',\'index\')}}">\n    <i class="glyphicon glyphicon-cog"></i>\n    {{=T("admin")}}\n  </a>\n  <a class="btn btn-secondary" href="{{=URL(\'examples\',\'default\',\'index\')}}">{{=T("Online examples")}}</a>\n  <a class="btn btn-secondary" href="http://web2py.com">web2py.com</a>\n  <a class="btn btn-secondary" href="http://web2py.com/book">{{=T(\'Documentation\')}}</a>\n  <a class="btn btn-secondary" href="{{=URL(\'default\',\'api_get_user_email\')}}">{{=T(\'API Example\')}}</a>\n  <a class="btn btn-secondary" href="{{=URL(\'default\',\'grid/auth_user\')}}">{{=T(\'Grid Example\')}}</a>\n  <a class="btn btn-secondary" href="{{=URL(\'default\',\'wiki\')}}">{{=T(\'Wiki Example\')}}</a>\n</center>\n{{elif \'content\' in globals():}}\n{{=content}}\n{{else:}}\n{{=BEAUTIFY(response._vars)}}\n{{pass}}\n'
p7
sS'snapshot'
p8
(dp9
S'exception'
p10
(dp11
S'__getslice__'
p12
S"<method-wrapper '__getslice__' of exceptions.IOError object>"
p13
sS'__str__'
p14
S"<method-wrapper '__str__' of exceptions.IOError object>"
p15
sS'__reduce__'
p16
S'<built-in method __reduce__ of exceptions.IOError object>'
p17
sS'__dict__'
p18
S'{}'
p19
sS'__sizeof__'
p20
S'<built-in method __sizeof__ of exceptions.IOError object>'
p21
sS'message'
p22
S"''"
p23
sS'__init__'
p24
S"<method-wrapper '__init__' of exceptions.IOError object>"
p25
sS'__setattr__'
p26
S"<method-wrapper '__setattr__' of exceptions.IOError object>"
p27
sS'__reduce_ex__'
p28
S'<built-in method __reduce_ex__ of exceptions.IOError object>'
p29
sS'__new__'
p30
S'<built-in method __new__ of type object>'
p31
sS'errno'
p32
S'2'
sS'__format__'
p33
S'<built-in method __format__ of exceptions.IOError object>'
p34
sS'__class__'
p35
S"<type 'exceptions.IOError'>"
p36
sS'filename'
p37
S"'/Users/eltoncrego/Documents/projects/github/cmps...RateMyLandlord/applications/rml/views/layout.html'"
p38
sS'__doc__'
p39
S"'I/O operation failed.'"
p40
sS'__getitem__'
p41
S"<method-wrapper '__getitem__' of exceptions.IOError object>"
p42
sS'__setstate__'
p43
S'<built-in method __setstate__ of exceptions.IOError object>'
p44
sS'__getattribute__'
p45
S"<method-wrapper '__getattribute__' of exceptions.IOError object>"
p46
sS'args'
p47
S"(2, 'No such file or directory')"
p48
sS'__subclasshook__'
p49
S'<built-in method __subclasshook__ of type object>'
p50
sS'__unicode__'
p51
S'<built-in method __unicode__ of exceptions.IOError object>'
p52
sS'strerror'
p53
S"'No such file or directory'"
p54
sS'__delattr__'
p55
S"<method-wrapper '__delattr__' of exceptions.IOError object>"
p56
sS'__repr__'
p57
S"<method-wrapper '__repr__' of exceptions.IOError object>"
p58
sS'__hash__'
p59
S"<method-wrapper '__hash__' of exceptions.IOError object>"
p60
ssS'evalue'
p61
S"[Errno 2] No such file or directory: '/Users/eltoncrego/Documents/projects/github/cmps183/cmps-183-final-project/183_RateMyLandlord/applications/rml/views/layout.html'"
p62
sS'frames'
p63
(lp64
(dp65
S'file'
p66
S'/Users/eltoncrego/Documents/projects/github/cmps183/cmps-183-final-project/183_RateMyLandlord/gluon/template.py'
p67
sS'dump'
p68
(dp69
S'builtinopen'
p70
S'<built-in function open>'
p71
sS'fileobj'
p72
S'undefined'
p73
sS'filepath'
p74
S"'/Users/eltoncrego/Documents/projects/github/cmps...RateMyLandlord/applications/rml/views/layout.html'"
p75
ssS'lnum'
p76
I445
sS'lines'
p77
(dp78
I448
S'        except IOError:'
p79
sI449
S"            self._raise_error('Unable to open included view file: ' + filepath)"
p80
sI440
S'        # Get the path of the file on the system.'
p81
sI441
S'        filepath = self.path and os.path.join(self.path, filename) or filename'
p82
sI442
S''
sI443
S'        # try to read the text.'
p83
sI444
S'        try:'
p84
sI445
S"            fileobj = open(filepath, 'rb')"
p85
sI446
S'            text = fileobj.read()'
p86
sI447
S'            fileobj.close()'
p87
ssS'call'
p88
S"(self=<gluon.template.TemplateParser object>, filename='layout.html')"
p89
sS'func'
p90
S'_get_file_text'
p91
sasS'pyver'
p92
S'Python 2.7.14: /usr/local/opt/python@2/bin/python2.7 (prefix: /usr/local/Cellar/python@2/2.7.14_3/Frameworks/Python.framework/Versions/2.7)'
p93
sS'etype'
p94
S"<type 'exceptions.IOError'>"
p95
sS'date'
p96
S'Tue Jun  5 14:47:36 2018'
p97
sS'locals'
p98
(dp99
S'self'
p100
S'<gluon.template.TemplateParser object>'
p101
sS'filepath'
p102
S"'/Users/eltoncrego/Documents/projects/github/cmps...RateMyLandlord/applications/rml/views/layout.html'"
p103
sS'context'
p104
S"{'A': <class 'gluon.html.A'>, 'ANY_OF': <class 'gluon.validators.ANY_OF'>, 'ASSIGNJS': <function ASSIGNJS>, 'AppConfig': <function AppConfig>, 'Auth': <class 'gluon.tools.Auth'>, 'B': <class 'gluon.html.B'>, 'BEAUTIFY': <class 'gluon.html.BEAUTIFY'>, 'BODY': <class 'gluon.html.BODY'>, 'BR': <class 'gluon.html.BR'>, 'BUTTON': <class 'gluon.html.BUTTON'>, ...}"
p105
sg37
S"'layout.html'"
p106
sssS'traceback'
p107
S'Traceback (most recent call last):\n  File "/Users/eltoncrego/Documents/projects/github/cmps183/cmps-183-final-project/183_RateMyLandlord/gluon/template.py", line 445, in _get_file_text\n    fileobj = open(filepath, \'rb\')\nIOError: [Errno 2] No such file or directory: \'/Users/eltoncrego/Documents/projects/github/cmps183/cmps-183-final-project/183_RateMyLandlord/applications/rml/views/layout.html\'\n'
p108
s.